target datalayout = "e-m:e-p270:32:32-p271:32:32-p272:64:64-i64:64-i128:128-f80:128-n8:16:32:64-S128"
target triple = "x86_64-pc-linux-gnu"

%struct.strbuf = type { i64, i64, ptr }
%struct.object_id = type { [32 x i8], i32 }
%struct.option = type { i32, i32, ptr, ptr, ptr, ptr, i32, ptr, i64, ptr, i64, ptr }
%struct.object_context = type { i16, %struct.strbuf, ptr }

@the_repository = external global ptr, align 8
@.str.12 = private unnamed_addr constant [6 x i8] c"quiet\00", align 1
@stderr = external global ptr, align 8
@ref_stash = internal constant [11 x i8] c"refs/stash\00", align 1
@.str.25 = private unnamed_addr constant [1 x i8] zeroinitializer, align 1
@git_gettext_enabled = external global i32, align 4
@.str.86 = private unnamed_addr constant [9 x i8] c"be quiet\00", align 1
@.str.87 = private unnamed_addr constant [8 x i8] c"message\00", align 1
@.str.88 = private unnamed_addr constant [14 x i8] c"stash message\00", align 1
@git_stash_store_usage = internal constant [2 x ptr] [ptr @.str.91, ptr null], align 16
@.str.89 = private unnamed_addr constant [49 x i8] c"\22git stash store\22 requires one <commit> argument\00", align 1
@.str.90 = private unnamed_addr constant [25 x i8] c"Cannot update %s with %s\00", align 1

; Function Attrs: inlinehint nounwind uwtable
define internal ptr @_(ptr noundef %0) #5 {
  %2 = alloca ptr, align 8
  %3 = alloca ptr, align 8
  store ptr %0, ptr %3, align 8, !tbaa !11
  %4 = load ptr, ptr %3, align 8, !tbaa !11
  %5 = load i8, ptr %4, align 1, !tbaa !58
  %6 = icmp ne i8 %5, 0
  br i1 %6, label %8, label %7

7:                                                ; preds = %1
  store ptr @.str.25, ptr %2, align 8
  br label %16

8:                                                ; preds = %1
  %9 = load i32, ptr @git_gettext_enabled, align 4, !tbaa !4
  %10 = icmp ne i32 %9, 0
  br i1 %10, label %13, label %11

11:                                               ; preds = %8
  %12 = load ptr, ptr %3, align 8, !tbaa !11
  store ptr %12, ptr %2, align 8
  br label %16

13:                                               ; preds = %8
  %14 = load ptr, ptr %3, align 8, !tbaa !11
  %15 = call ptr @dcgettext(ptr noundef null, ptr noundef %14, i32 noundef 5) #9
  store ptr %15, ptr %2, align 8
  br label %16

16:                                               ; preds = %13, %11, %7
  %17 = load ptr, ptr %2, align 8
  ret ptr %17
}

; Function Attrs: nounwind uwtable
define internal i32 @store_stash(i32 noundef %0, ptr noundef %1, ptr noundef %2, ptr noundef %3) #0 {
  %5 = alloca i32, align 4
  %6 = alloca i32, align 4
  %7 = alloca ptr, align 8
  %8 = alloca ptr, align 8
  %9 = alloca ptr, align 8
  %10 = alloca i32, align 4
  %11 = alloca ptr, align 8
  %12 = alloca %struct.object_id, align 4
  %13 = alloca %struct.object_context, align 8
  %14 = alloca [3 x %struct.option], align 16
  %15 = alloca i32, align 4
  %16 = alloca i32, align 4
  store i32 %0, ptr %6, align 4, !tbaa !4
  store ptr %1, ptr %7, align 8, !tbaa !8
  store ptr %2, ptr %8, align 8, !tbaa !11
  store ptr %3, ptr %9, align 8, !tbaa !13
  call void @llvm.lifetime.start.p0(i64 4, ptr %10) #9
  store i32 0, ptr %10, align 4, !tbaa !4
  call void @llvm.lifetime.start.p0(i64 8, ptr %11) #9
  store ptr null, ptr %11, align 8, !tbaa !11
  call void @llvm.lifetime.start.p0(i64 36, ptr %12) #9
  call void @llvm.lifetime.start.p0(i64 40, ptr %13) #9
  call void @llvm.memset.p0.i64(ptr align 8 %13, i8 0, i64 40, i1 false)
  call void @llvm.lifetime.start.p0(i64 264, ptr %14) #9
  %17 = getelementptr inbounds nuw %struct.option, ptr %14, i32 0, i32 0
  store i32 8, ptr %17, align 8, !tbaa !16
  %18 = getelementptr inbounds nuw %struct.option, ptr %14, i32 0, i32 1
  store i32 113, ptr %18, align 4, !tbaa !19
  %19 = getelementptr inbounds nuw %struct.option, ptr %14, i32 0, i32 2
  store ptr @.str.12, ptr %19, align 8, !tbaa !20
  %20 = getelementptr inbounds nuw %struct.option, ptr %14, i32 0, i32 3
  store ptr %10, ptr %20, align 8, !tbaa !21
  %21 = getelementptr inbounds nuw %struct.option, ptr %14, i32 0, i32 4
  store ptr null, ptr %21, align 8, !tbaa !22
  %22 = getelementptr inbounds nuw %struct.option, ptr %14, i32 0, i32 5
  store ptr @.str.86, ptr %22, align 8, !tbaa !23
  %23 = getelementptr inbounds nuw %struct.option, ptr %14, i32 0, i32 6
  store i32 2, ptr %23, align 8, !tbaa !24
  %24 = getelementptr i8, ptr %14, i64 44
  call void @llvm.memset.p0.i64(ptr align 4 %24, i8 0, i64 4, i1 false)
  %25 = getelementptr inbounds nuw %struct.option, ptr %14, i32 0, i32 7
  store ptr null, ptr %25, align 8, !tbaa !25
  %26 = getelementptr inbounds nuw %struct.option, ptr %14, i32 0, i32 8
  store i64 0, ptr %26, align 8, !tbaa !26
  %27 = getelementptr inbounds nuw %struct.option, ptr %14, i32 0, i32 9
  store ptr null, ptr %27, align 8, !tbaa !27
  %28 = getelementptr inbounds nuw %struct.option, ptr %14, i32 0, i32 10
  store i64 0, ptr %28, align 8, !tbaa !28
  %29 = getelementptr inbounds nuw %struct.option, ptr %14, i32 0, i32 11
  store ptr null, ptr %29, align 8, !tbaa !29
  %30 = getelementptr inbounds %struct.option, ptr %14, i64 1
  %31 = getelementptr inbounds nuw %struct.option, ptr %30, i32 0, i32 0
  store i32 10, ptr %31, align 8, !tbaa !16
  %32 = getelementptr inbounds nuw %struct.option, ptr %30, i32 0, i32 1
  store i32 109, ptr %32, align 4, !tbaa !19
  %33 = getelementptr inbounds nuw %struct.option, ptr %30, i32 0, i32 2
  store ptr @.str.87, ptr %33, align 8, !tbaa !20
  %34 = getelementptr inbounds nuw %struct.option, ptr %30, i32 0, i32 3
  store ptr %11, ptr %34, align 8, !tbaa !21
  %35 = getelementptr inbounds nuw %struct.option, ptr %30, i32 0, i32 4
  store ptr @.str.87, ptr %35, align 8, !tbaa !22
  %36 = getelementptr inbounds nuw %struct.option, ptr %30, i32 0, i32 5
  store ptr @.str.88, ptr %36, align 8, !tbaa !23
  %37 = getelementptr inbounds nuw %struct.option, ptr %30, i32 0, i32 6
  store i32 0, ptr %37, align 8, !tbaa !24
  %38 = getelementptr i8, ptr %30, i64 44
  call void @llvm.memset.p0.i64(ptr align 4 %38, i8 0, i64 4, i1 false)
  %39 = getelementptr inbounds nuw %struct.option, ptr %30, i32 0, i32 7
  store ptr null, ptr %39, align 8, !tbaa !25
  %40 = getelementptr inbounds nuw %struct.option, ptr %30, i32 0, i32 8
  store i64 0, ptr %40, align 8, !tbaa !26
  %41 = getelementptr inbounds nuw %struct.option, ptr %30, i32 0, i32 9
  store ptr null, ptr %41, align 8, !tbaa !27
  %42 = getelementptr inbounds nuw %struct.option, ptr %30, i32 0, i32 10
  store i64 0, ptr %42, align 8, !tbaa !28
  %43 = getelementptr inbounds nuw %struct.option, ptr %30, i32 0, i32 11
  store ptr null, ptr %43, align 8, !tbaa !29
  %44 = getelementptr inbounds %struct.option, ptr %14, i64 2
  call void @llvm.memset.p0.i64(ptr align 8 %44, i8 0, i64 88, i1 false)
  %45 = getelementptr inbounds nuw %struct.option, ptr %44, i32 0, i32 0
  store i32 0, ptr %45, align 8, !tbaa !16
  call void @llvm.lifetime.start.p0(i64 4, ptr %15) #9
  %46 = load i32, ptr %6, align 4, !tbaa !4
  %47 = load ptr, ptr %7, align 8, !tbaa !8
  %48 = load ptr, ptr %8, align 8, !tbaa !11
  %49 = getelementptr inbounds [3 x %struct.option], ptr %14, i64 0, i64 0
  %50 = call i32 @parse_options(i32 noundef %46, ptr noundef %47, ptr noundef %48, ptr noundef %49, ptr noundef @git_stash_store_usage, i32 noundef 8)
  store i32 %50, ptr %6, align 4, !tbaa !4
  %51 = load i32, ptr %6, align 4, !tbaa !4
  %52 = icmp ne i32 %51, 1
  br i1 %52, label %53, label %61

53:                                               ; preds = %4
  %54 = load i32, ptr %10, align 4, !tbaa !4
  %55 = icmp ne i32 %54, 0
  br i1 %55, label %60, label %56

56:                                               ; preds = %53
  %57 = load ptr, ptr @stderr, align 8, !tbaa !52
  %58 = call ptr @_(ptr noundef @.str.89)
  %59 = call i32 (ptr, ptr, ...) @fprintf_ln(ptr noundef %57, ptr noundef %58)
  br label %60

60:                                               ; preds = %56, %53
  store i32 -1, ptr %5, align 4
  store i32 1, ptr %16, align 4
  br label %88

61:                                               ; preds = %4
  %62 = load ptr, ptr @the_repository, align 8, !tbaa !13
  %63 = load ptr, ptr %7, align 8, !tbaa !8
  %64 = getelementptr inbounds ptr, ptr %63, i64 0
  %65 = load ptr, ptr %64, align 8, !tbaa !11
  %66 = load i32, ptr %10, align 4, !tbaa !4
  %67 = icmp ne i32 %66, 0
  %68 = select i1 %67, i32 1, i32 0
  %69 = call i32 @get_oid_with_context(ptr noundef %62, ptr noundef %65, i32 noundef %68, ptr noundef %12, ptr noundef %13)
  %70 = icmp ne i32 %69, 0
  br i1 %70, label %71, label %82

71:                                               ; preds = %61
  %72 = load i32, ptr %10, align 4, !tbaa !4
  %73 = icmp ne i32 %72, 0
  br i1 %73, label %81, label %74

74:                                               ; preds = %71
  %75 = load ptr, ptr @stderr, align 8, !tbaa !52
  %76 = call ptr @_(ptr noundef @.str.90)
  %77 = load ptr, ptr %7, align 8, !tbaa !8
  %78 = getelementptr inbounds ptr, ptr %77, i64 0
  %79 = load ptr, ptr %78, align 8, !tbaa !11
  %80 = call i32 (ptr, ptr, ...) @fprintf_ln(ptr noundef %75, ptr noundef %76, ptr noundef @ref_stash, ptr noundef %79)
  br label %81

81:                                               ; preds = %74, %71
  store i32 -1, ptr %15, align 4, !tbaa !4
  br label %86

82:                                               ; preds = %61
  %83 = load ptr, ptr %11, align 8, !tbaa !11
  %84 = load i32, ptr %10, align 4, !tbaa !4
  %85 = call i32 @do_store_stash(ptr noundef %12, ptr noundef %83, i32 noundef %84)
  store i32 %85, ptr %15, align 4, !tbaa !4
  br label %86

86:                                               ; preds = %82, %81
  call void @object_context_release(ptr noundef %13)
  %87 = load i32, ptr %15, align 4, !tbaa !4
  store i32 %87, ptr %5, align 4
  store i32 1, ptr %16, align 4
  br label %88

88:                                               ; preds = %86, %60
  call void @llvm.lifetime.end.p0(i64 4, ptr %15) #9
  call void @llvm.lifetime.end.p0(i64 264, ptr %14) #9
  call void @llvm.lifetime.end.p0(i64 40, ptr %13) #9
  call void @llvm.lifetime.end.p0(i64 36, ptr %12) #9
  call void @llvm.lifetime.end.p0(i64 8, ptr %11) #9
  call void @llvm.lifetime.end.p0(i64 4, ptr %10) #9
  %89 = load i32, ptr %5, align 4
  ret i32 %89
}