; Function Attrs: nounwind uwtable
define internal range(i32 -1, 1) i32 @store_stash(i32 noundef %0, ptr noundef %1, ptr noundef %2, ptr readnone captures(none) %3) #0 {
  %5 = alloca i32, align 4
  %6 = alloca ptr, align 8
  %7 = alloca %struct.object_id, align 4
  %8 = alloca %struct.object_context, align 8
  %9 = alloca [3 x %struct.option], align 16
  call void @llvm.lifetime.start.p0(i64 4, ptr nonnull %5) #15
  store i32 0, ptr %5, align 4, !tbaa !42
  call void @llvm.lifetime.start.p0(i64 8, ptr nonnull %6) #15
  store ptr null, ptr %6, align 8, !tbaa !54
  call void @llvm.lifetime.start.p0(i64 36, ptr nonnull %7) #15
  call void @llvm.lifetime.start.p0(i64 40, ptr nonnull %8) #15
  call void @llvm.memset.p0.i64(ptr noundef nonnull align 8 dereferenceable(40) %8, i8 0, i64 40, i1 false)
  call void @llvm.lifetime.start.p0(i64 264, ptr nonnull %9) #15
  store i32 8, ptr %9, align 16, !tbaa !8
  %10 = getelementptr inbounds nuw i8, ptr %9, i64 4
  store i32 113, ptr %10, align 4, !tbaa !13
  %11 = getelementptr inbounds nuw i8, ptr %9, i64 8
  store ptr @.str.12, ptr %11, align 8, !tbaa !14
  %12 = getelementptr inbounds nuw i8, ptr %9, i64 16
  store ptr %5, ptr %12, align 16, !tbaa !15
  %13 = getelementptr inbounds nuw i8, ptr %9, i64 24
  store ptr null, ptr %13, align 8, !tbaa !43
  %14 = getelementptr inbounds nuw i8, ptr %9, i64 32
  store ptr @.str.86, ptr %14, align 16, !tbaa !44
  %15 = getelementptr inbounds nuw i8, ptr %9, i64 40
  store i32 2, ptr %15, align 8, !tbaa !17
  %16 = getelementptr inbounds nuw i8, ptr %9, i64 44
  %17 = getelementptr inbounds nuw i8, ptr %9, i64 88
  call void @llvm.memset.p0.i64(ptr noundef nonnull align 4 dereferenceable(44) %16, i8 0, i64 44, i1 false)
  store i32 10, ptr %17, align 8, !tbaa !8
  %18 = getelementptr inbounds nuw i8, ptr %9, i64 92
  store i32 109, ptr %18, align 4, !tbaa !13
  %19 = getelementptr inbounds nuw i8, ptr %9, i64 96
  store ptr @.str.87, ptr %19, align 16, !tbaa !14
  %20 = getelementptr inbounds nuw i8, ptr %9, i64 104
  store ptr %6, ptr %20, align 8, !tbaa !15
  %21 = getelementptr inbounds nuw i8, ptr %9, i64 112
  store ptr @.str.87, ptr %21, align 16, !tbaa !43
  %22 = getelementptr inbounds nuw i8, ptr %9, i64 120
  store ptr @.str.88, ptr %22, align 8, !tbaa !44
  %23 = getelementptr inbounds nuw i8, ptr %9, i64 128
  call void @llvm.memset.p0.i64(ptr noundef nonnull align 16 dereferenceable(136) %23, i8 0, i64 136, i1 false)
  %24 = call i32 @parse_options(i32 noundef %0, ptr noundef %1, ptr noundef %2, ptr noundef nonnull %9, ptr noundef nonnull @git_stash_store_usage, i32 noundef 8) #15
  %.not = icmp eq i32 %24, 1
  br i1 %.not, label %33, label %25

25:                                               ; preds = %4
  %26 = load i32, ptr %5, align 4, !tbaa !42
  %.not11 = icmp eq i32 %26, 0
  br i1 %.not11, label %27, label %53

27:                                               ; preds = %25
  %28 = load ptr, ptr @stderr, align 8, !tbaa !52
  %29 = load i32, ptr @git_gettext_enabled, align 4, !tbaa !42
  %.not4.i = icmp eq i32 %29, 0
  br i1 %.not4.i, label %_.exit, label %30

30:                                               ; preds = %27
  %31 = call ptr @dcgettext(ptr noundef null, ptr noundef nonnull @.str.89, i32 noundef 5) #15
  br label %_.exit

_.exit:                                           ; preds = %27, %30
  %.0.i = phi ptr [ %31, %30 ], [ @.str.89, %27 ]
  %32 = call i32 (ptr, ptr, ...) @fprintf_ln(ptr noundef %28, ptr noundef %.0.i) #15
  br label %53

33:                                               ; preds = %4
  %34 = load ptr, ptr @the_repository, align 8, !tbaa !18
  %35 = load ptr, ptr %1, align 8, !tbaa !54
  %36 = load i32, ptr %5, align 4, !tbaa !42
  %.not8 = icmp ne i32 %36, 0
  %37 = zext i1 %.not8 to i32
  %38 = call i32 @get_oid_with_context(ptr noundef %34, ptr noundef %35, i32 noundef %37, ptr noundef nonnull %7, ptr noundef nonnull %8) #15
  %.not9 = icmp eq i32 %38, 0
  br i1 %.not9, label %48, label %39

39:                                               ; preds = %33
  %40 = load i32, ptr %5, align 4, !tbaa !42
  %.not10 = icmp eq i32 %40, 0
  br i1 %.not10, label %41, label %52

41:                                               ; preds = %39
  %42 = load ptr, ptr @stderr, align 8, !tbaa !52
  %43 = load i32, ptr @git_gettext_enabled, align 4, !tbaa !42
  %.not4.i12 = icmp eq i32 %43, 0
  br i1 %.not4.i12, label %_.exit14, label %44

44:                                               ; preds = %41
  %45 = call ptr @dcgettext(ptr noundef null, ptr noundef nonnull @.str.90, i32 noundef 5) #15
  br label %_.exit14

_.exit14:                                         ; preds = %41, %44
  %.0.i13 = phi ptr [ %45, %44 ], [ @.str.90, %41 ]
  %46 = load ptr, ptr %1, align 8, !tbaa !54
  %47 = call i32 (ptr, ptr, ...) @fprintf_ln(ptr noundef %42, ptr noundef %.0.i13, ptr noundef nonnull @ref_stash, ptr noundef %46) #15
  br label %52

48:                                               ; preds = %33
  %49 = load ptr, ptr %6, align 8, !tbaa !54
  %50 = load i32, ptr %5, align 4, !tbaa !42
  %51 = call fastcc i32 @do_store_stash(ptr noundef %7, ptr noundef %49, i32 noundef %50)
  br label %52

52:                                               ; preds = %39, %_.exit14, %48
  %.0 = phi i32 [ %51, %48 ], [ -1, %_.exit14 ], [ -1, %39 ]
  call void @object_context_release(ptr noundef nonnull %8) #15
  br label %53

53:                                               ; preds = %25, %_.exit, %52
  %.07 = phi i32 [ %.0, %52 ], [ -1, %_.exit ], [ -1, %25 ]
  call void @llvm.lifetime.end.p0(i64 264, ptr nonnull %9) #15
  call void @llvm.lifetime.end.p0(i64 40, ptr nonnull %8) #15
  call void @llvm.lifetime.end.p0(i64 36, ptr nonnull %7) #15
  call void @llvm.lifetime.end.p0(i64 8, ptr nonnull %6) #15
  call void @llvm.lifetime.end.p0(i64 4, ptr nonnull %5) #15
  ret i32 %.07
}